target datalayout = "e-m:e-p270:32:32-p271:32:32-p272:64:64-i64:64-i128:128-f80:128-n8:16:32:64-S128"
target triple = "x86_64-pc-linux-gnu"

%"class.cv::ParallelLoopBody" = type { ptr }
%"struct.cv::VariationalRefinementImpl::RedBlackSOR_ParBody" = type <{ %"class.cv::ParallelLoopBody", ptr, i32, i32, i32, [4 x i8], ptr, ptr, i8, [7 x i8] }>

@_ZTVN2cv16ParallelLoopBodyE = available_externally unnamed_addr constant { [5 x ptr] } { [5 x ptr] [ptr null, ptr @_ZTIN2cv16ParallelLoopBodyE, ptr @_ZN2cv16ParallelLoopBodyD1Ev, ptr @_ZN2cv16ParallelLoopBodyD0Ev, ptr @__cxa_pure_virtual] }, align 8

; Function Attrs: inlinehint mustprogress nounwind uwtable
define linkonce_odr hidden void @_ZN2cv16ParallelLoopBodyC2Ev(ptr noundef nonnull align 8 dereferenceable(8) %0) unnamed_addr #2 comdat align 2 {
  %2 = alloca ptr, align 8
  store ptr %0, ptr %2, align 8, !tbaa !91
  %3 = load ptr, ptr %2, align 8
  store ptr getelementptr inbounds inrange(-16, 24) ({ [5 x ptr] }, ptr @_ZTVN2cv16ParallelLoopBodyE, i32 0, i32 0, i32 2), ptr %3, align 8, !tbaa !8
  ret void
}

; Function Attrs: mustprogress nounwind uwtable
define hidden void @_ZN2cv25VariationalRefinementImpl19RedBlackSOR_ParBodyC2ERS0_iiRNS0_14RedBlackBufferES4_b(ptr noundef nonnull align 8 dereferenceable(49) %0, ptr noundef nonnull align 8 dereferenceable(5160) %1, i32 noundef %2, i32 noundef %3, ptr noundef nonnull align 8 dereferenceable(208) %4, ptr noundef nonnull align 8 dereferenceable(208) %5, i1 noundef zeroext %6) unnamed_addr #8 align 2 {
  %8 = alloca ptr, align 8
  %9 = alloca ptr, align 8
  %10 = alloca i32, align 4
  %11 = alloca i32, align 4
  %12 = alloca ptr, align 8
  %13 = alloca ptr, align 8
  %14 = alloca i8, align 1
  store ptr %0, ptr %8, align 8, !tbaa !173
  store ptr %1, ptr %9, align 8, !tbaa !3
  store i32 %2, ptr %10, align 4, !tbaa !49
  store i32 %3, ptr %11, align 4, !tbaa !49
  store ptr %4, ptr %12, align 8, !tbaa !44
  store ptr %5, ptr %13, align 8, !tbaa !44
  %15 = zext i1 %6 to i8
  store i8 %15, ptr %14, align 1, !tbaa !125
  %16 = load ptr, ptr %8, align 8
  call void @_ZN2cv16ParallelLoopBodyC2Ev(ptr noundef nonnull align 8 dereferenceable(8) %16) #18
  store ptr getelementptr inbounds inrange(-16, 24) ({ [5 x ptr] }, ptr @_ZTVN2cv25VariationalRefinementImpl19RedBlackSOR_ParBodyE, i32 0, i32 0, i32 2), ptr %16, align 8, !tbaa !8
  %17 = getelementptr inbounds nuw %"struct.cv::VariationalRefinementImpl::RedBlackSOR_ParBody", ptr %16, i32 0, i32 1
  %18 = load ptr, ptr %9, align 8, !tbaa !3
  store ptr %18, ptr %17, align 8, !tbaa !175
  %19 = getelementptr inbounds nuw %"struct.cv::VariationalRefinementImpl::RedBlackSOR_ParBody", ptr %16, i32 0, i32 2
  %20 = load i32, ptr %10, align 4, !tbaa !49
  store i32 %20, ptr %19, align 8, !tbaa !177
  %21 = getelementptr inbounds nuw %"struct.cv::VariationalRefinementImpl::RedBlackSOR_ParBody", ptr %16, i32 0, i32 4
  %22 = load i32, ptr %11, align 4, !tbaa !49
  store i32 %22, ptr %21, align 8, !tbaa !178
  %23 = getelementptr inbounds nuw %"struct.cv::VariationalRefinementImpl::RedBlackSOR_ParBody", ptr %16, i32 0, i32 6
  %24 = load ptr, ptr %12, align 8, !tbaa !44
  store ptr %24, ptr %23, align 8, !tbaa !179
  %25 = getelementptr inbounds nuw %"struct.cv::VariationalRefinementImpl::RedBlackSOR_ParBody", ptr %16, i32 0, i32 7
  %26 = load ptr, ptr %13, align 8, !tbaa !44
  store ptr %26, ptr %25, align 8, !tbaa !180
  %27 = getelementptr inbounds nuw %"struct.cv::VariationalRefinementImpl::RedBlackSOR_ParBody", ptr %16, i32 0, i32 8
  %28 = load i8, ptr %14, align 1, !tbaa !125, !range !133, !noundef !103
  %29 = trunc i8 %28 to i1
  %30 = zext i1 %29 to i8
  store i8 %30, ptr %27, align 8, !tbaa !181
  %31 = getelementptr inbounds nuw %"struct.cv::VariationalRefinementImpl::RedBlackSOR_ParBody", ptr %16, i32 0, i32 4
  %32 = load i32, ptr %31, align 8, !tbaa !178
  %33 = sitofp i32 %32 to double
  %34 = getelementptr inbounds nuw %"struct.cv::VariationalRefinementImpl::RedBlackSOR_ParBody", ptr %16, i32 0, i32 2
  %35 = load i32, ptr %34, align 8, !tbaa !177
  %36 = sitofp i32 %35 to double
  %37 = fdiv double %33, %36
  %38 = call double @llvm.ceil.f64(double %37)
  %39 = fptosi double %38 to i32
  %40 = getelementptr inbounds nuw %"struct.cv::VariationalRefinementImpl::RedBlackSOR_ParBody", ptr %16, i32 0, i32 3
  store i32 %39, ptr %40, align 4, !tbaa !182
  ret void
}